target datalayout = "e-m:e-p270:32:32-p271:32:32-p272:64:64-i64:64-i128:128-f80:128-n8:16:32:64-S128"
target triple = "x86_64-pc-linux-gnu"

%struct.JSValue = type { %union.JSValueUnion, i64 }
%union.JSValueUnion = type { double }
%struct.JSRefCountHeader = type { i32 }
%struct.JSSTDFile = type { ptr, i32, i32 }

@js_std_file_class_id = internal global i32 0, align 4
@.str.85 = private unnamed_addr constant [18 x i8] c"invalid file mode\00", align 1
@.str.86 = private unnamed_addr constant [6 x i8] c"errno\00", align 1
@.str.87 = private unnamed_addr constant [3 x i8] c"rw\00", align 1

; Function Attrs: nounwind uwtable
define internal void @JS_FreeValue(ptr noundef %0, i64 %1, i64 %2) #0 {
  %4 = alloca %struct.JSValue, align 8
  %5 = alloca ptr, align 8
  %6 = alloca ptr, align 8
  %7 = getelementptr inbounds { i64, i64 }, ptr %4, i32 0, i32 0
  store i64 %1, ptr %7, align 8
  %8 = getelementptr inbounds { i64, i64 }, ptr %4, i32 0, i32 1
  store i64 %2, ptr %8, align 8
  store ptr %0, ptr %5, align 8
  %9 = getelementptr inbounds %struct.JSValue, ptr %4, i32 0, i32 1
  %10 = load i64, ptr %9, align 8
  %11 = trunc i64 %10 to i32
  %12 = icmp uge i32 %11, -11
  br i1 %12, label %13, label %28

13:                                               ; preds = %3
  %14 = getelementptr inbounds %struct.JSValue, ptr %4, i32 0, i32 0
  %15 = load ptr, ptr %14, align 8
  store ptr %15, ptr %6, align 8
  %16 = load ptr, ptr %6, align 8
  %17 = getelementptr inbounds %struct.JSRefCountHeader, ptr %16, i32 0, i32 0
  %18 = load i32, ptr %17, align 4
  %19 = add i32 %18, -1
  store i32 %19, ptr %17, align 4
  %20 = icmp sle i32 %19, 0
  br i1 %20, label %21, label %27

21:                                               ; preds = %13
  %22 = load ptr, ptr %5, align 8
  %23 = getelementptr inbounds { i64, i64 }, ptr %4, i32 0, i32 0
  %24 = load i64, ptr %23, align 8
  %25 = getelementptr inbounds { i64, i64 }, ptr %4, i32 0, i32 1
  %26 = load i64, ptr %25, align 8
  call void @__JS_FreeValue(ptr noundef %22, i64 %24, i64 %26)
  br label %27

27:                                               ; preds = %21, %13
  br label %28

28:                                               ; preds = %27, %3
  ret void
}

; Function Attrs: nounwind uwtable
define internal i32 @JS_IsException(i64 %0, i64 %1) #0 {
  %3 = alloca %struct.JSValue, align 8
  %4 = getelementptr inbounds { i64, i64 }, ptr %3, i32 0, i32 0
  store i64 %0, ptr %4, align 8
  %5 = getelementptr inbounds { i64, i64 }, ptr %3, i32 0, i32 1
  store i64 %1, ptr %5, align 8
  %6 = getelementptr inbounds %struct.JSValue, ptr %3, i32 0, i32 1
  %7 = load i64, ptr %6, align 8
  %8 = trunc i64 %7 to i32
  %9 = icmp eq i32 %8, 6
  %10 = xor i1 %9, true
  %11 = xor i1 %10, true
  %12 = zext i1 %11 to i32
  %13 = sext i32 %12 to i64
  %14 = trunc i64 %13 to i32
  ret i32 %14
}

; Function Attrs: nounwind uwtable
define internal i32 @JS_IsUndefined(i64 %0, i64 %1) #0 {
  %3 = alloca %struct.JSValue, align 8
  %4 = getelementptr inbounds { i64, i64 }, ptr %3, i32 0, i32 0
  store i64 %0, ptr %4, align 8
  %5 = getelementptr inbounds { i64, i64 }, ptr %3, i32 0, i32 1
  store i64 %1, ptr %5, align 8
  %6 = getelementptr inbounds %struct.JSValue, ptr %3, i32 0, i32 1
  %7 = load i64, ptr %6, align 8
  %8 = trunc i64 %7 to i32
  %9 = icmp eq i32 %8, 3
  %10 = zext i1 %9 to i32
  ret i32 %10
}

; Function Attrs: nounwind uwtable
define internal { i64, i64 } @js_new_std_file(ptr noundef %0, ptr noundef %1, i32 noundef %2, i32 noundef %3) #0 {
  %5 = alloca %struct.JSValue, align 8
  %6 = alloca ptr, align 8
  %7 = alloca ptr, align 8
  %8 = alloca i32, align 4
  %9 = alloca i32, align 4
  %10 = alloca ptr, align 8
  %11 = alloca %struct.JSValue, align 8
  %12 = alloca %struct.JSValue, align 8
  store ptr %0, ptr %6, align 8
  store ptr %1, ptr %7, align 8
  store i32 %2, ptr %8, align 4
  store i32 %3, ptr %9, align 4
  %13 = load ptr, ptr %6, align 8
  %14 = load i32, ptr @js_std_file_class_id, align 4
  %15 = call { i64, i64 } @JS_NewObjectClass(ptr noundef %13, i32 noundef %14)
  %16 = getelementptr inbounds { i64, i64 }, ptr %12, i32 0, i32 0
  %17 = extractvalue { i64, i64 } %15, 0
  store i64 %17, ptr %16, align 8
  %18 = getelementptr inbounds { i64, i64 }, ptr %12, i32 0, i32 1
  %19 = extractvalue { i64, i64 } %15, 1
  store i64 %19, ptr %18, align 8
  call void @llvm.memcpy.p0.p0.i64(ptr align 8 %11, ptr align 8 %12, i64 16, i1 false)
  %20 = getelementptr inbounds { i64, i64 }, ptr %11, i32 0, i32 0
  %21 = load i64, ptr %20, align 8
  %22 = getelementptr inbounds { i64, i64 }, ptr %11, i32 0, i32 1
  %23 = load i64, ptr %22, align 8
  %24 = call i32 @JS_IsException(i64 %21, i64 %23)
  %25 = icmp ne i32 %24, 0
  br i1 %25, label %26, label %27

26:                                               ; preds = %4
  call void @llvm.memcpy.p0.p0.i64(ptr align 8 %5, ptr align 8 %11, i64 16, i1 false)
  br label %55

27:                                               ; preds = %4
  %28 = load ptr, ptr %6, align 8
  %29 = call ptr @js_mallocz(ptr noundef %28, i64 noundef 16)
  store ptr %29, ptr %10, align 8
  %30 = load ptr, ptr %10, align 8
  %31 = icmp ne ptr %30, null
  br i1 %31, label %40, label %32

32:                                               ; preds = %27
  %33 = load ptr, ptr %6, align 8
  %34 = getelementptr inbounds { i64, i64 }, ptr %11, i32 0, i32 0
  %35 = load i64, ptr %34, align 8
  %36 = getelementptr inbounds { i64, i64 }, ptr %11, i32 0, i32 1
  %37 = load i64, ptr %36, align 8
  call void @JS_FreeValue(ptr noundef %33, i64 %35, i64 %37)
  %38 = getelementptr inbounds %struct.JSValue, ptr %5, i32 0, i32 0
  store i32 0, ptr %38, align 8
  %39 = getelementptr inbounds %struct.JSValue, ptr %5, i32 0, i32 1
  store i64 6, ptr %39, align 8
  br label %55

40:                                               ; preds = %27
  %41 = load i32, ptr %8, align 4
  %42 = load ptr, ptr %10, align 8
  %43 = getelementptr inbounds %struct.JSSTDFile, ptr %42, i32 0, i32 1
  store i32 %41, ptr %43, align 8
  %44 = load i32, ptr %9, align 4
  %45 = load ptr, ptr %10, align 8
  %46 = getelementptr inbounds %struct.JSSTDFile, ptr %45, i32 0, i32 2
  store i32 %44, ptr %46, align 4
  %47 = load ptr, ptr %7, align 8
  %48 = load ptr, ptr %10, align 8
  %49 = getelementptr inbounds %struct.JSSTDFile, ptr %48, i32 0, i32 0
  store ptr %47, ptr %49, align 8
  %50 = load ptr, ptr %10, align 8
  %51 = getelementptr inbounds { i64, i64 }, ptr %11, i32 0, i32 0
  %52 = load i64, ptr %51, align 8
  %53 = getelementptr inbounds { i64, i64 }, ptr %11, i32 0, i32 1
  %54 = load i64, ptr %53, align 8
  call void @JS_SetOpaque(i64 %52, i64 %54, ptr noundef %50)
  call void @llvm.memcpy.p0.p0.i64(ptr align 8 %5, ptr align 8 %11, i64 16, i1 false)
  br label %55

55:                                               ; preds = %40, %32, %26
  %56 = load { i64, i64 }, ptr %5, align 8
  ret { i64, i64 } %56
}

; Function Attrs: nounwind uwtable
define internal void @js_set_error_object(ptr noundef %0, i64 %1, i64 %2, i32 noundef %3) #0 {
  %5 = alloca %struct.JSValue, align 8
  %6 = alloca ptr, align 8
  %7 = alloca i32, align 4
  %8 = alloca %struct.JSValue, align 8
  %9 = alloca ptr, align 8
  %10 = alloca i32, align 4
  %11 = alloca %struct.JSValue, align 8
  %12 = getelementptr inbounds { i64, i64 }, ptr %8, i32 0, i32 0
  store i64 %1, ptr %12, align 8
  %13 = getelementptr inbounds { i64, i64 }, ptr %8, i32 0, i32 1
  store i64 %2, ptr %13, align 8
  store ptr %0, ptr %9, align 8
  store i32 %3, ptr %10, align 4
  %14 = getelementptr inbounds { i64, i64 }, ptr %8, i32 0, i32 0
  %15 = load i64, ptr %14, align 8
  %16 = getelementptr inbounds { i64, i64 }, ptr %8, i32 0, i32 1
  %17 = load i64, ptr %16, align 8
  %18 = call i32 @JS_IsUndefined(i64 %15, i64 %17)
  %19 = icmp ne i32 %18, 0
  br i1 %19, label %40, label %20

20:                                               ; preds = %4
  %21 = load ptr, ptr %9, align 8
  %22 = load ptr, ptr %9, align 8
  %23 = load i32, ptr %10, align 4
  store ptr %22, ptr %6, align 8
  store i32 %23, ptr %7, align 4
  %24 = load i32, ptr %7, align 4
  store i32 %24, ptr %5, align 8
  %25 = getelementptr inbounds %struct.JSValue, ptr %5, i32 0, i32 1
  store i64 0, ptr %25, align 8
  %26 = load { i64, i64 }, ptr %5, align 8
  %27 = getelementptr inbounds { i64, i64 }, ptr %11, i32 0, i32 0
  %28 = extractvalue { i64, i64 } %26, 0
  store i64 %28, ptr %27, align 8
  %29 = getelementptr inbounds { i64, i64 }, ptr %11, i32 0, i32 1
  %30 = extractvalue { i64, i64 } %26, 1
  store i64 %30, ptr %29, align 8
  %31 = getelementptr inbounds { i64, i64 }, ptr %8, i32 0, i32 0
  %32 = load i64, ptr %31, align 8
  %33 = getelementptr inbounds { i64, i64 }, ptr %8, i32 0, i32 1
  %34 = load i64, ptr %33, align 8
  %35 = getelementptr inbounds { i64, i64 }, ptr %11, i32 0, i32 0
  %36 = load i64, ptr %35, align 8
  %37 = getelementptr inbounds { i64, i64 }, ptr %11, i32 0, i32 1
  %38 = load i64, ptr %37, align 8
  %39 = call i32 @JS_SetPropertyStr(ptr noundef %21, i64 %32, i64 %34, ptr noundef @.str.86, i64 %36, i64 %38)
  br label %40

40:                                               ; preds = %20, %4
  ret void
}

; Function Attrs: nounwind uwtable
define internal ptr @JS_ToCString(ptr noundef %0, i64 %1, i64 %2) #0 {
  %4 = alloca %struct.JSValue, align 8
  %5 = alloca ptr, align 8
  %6 = getelementptr inbounds { i64, i64 }, ptr %4, i32 0, i32 0
  store i64 %1, ptr %6, align 8
  %7 = getelementptr inbounds { i64, i64 }, ptr %4, i32 0, i32 1
  store i64 %2, ptr %7, align 8
  store ptr %0, ptr %5, align 8
  %8 = load ptr, ptr %5, align 8
  %9 = getelementptr inbounds { i64, i64 }, ptr %4, i32 0, i32 0
  %10 = load i64, ptr %9, align 8
  %11 = getelementptr inbounds { i64, i64 }, ptr %4, i32 0, i32 1
  %12 = load i64, ptr %11, align 8
  %13 = call ptr @JS_ToCStringLen2(ptr noundef %8, ptr noundef null, i64 %10, i64 %12, i32 noundef 0)
  ret ptr %13
}

; Function Attrs: nounwind uwtable
define internal { i64, i64 } @js_std_popen(ptr noundef %0, i64 %1, i64 %2, i32 noundef %3, ptr noundef %4) #0 {
  %6 = alloca %struct.JSValue, align 8
  %7 = alloca %struct.JSValue, align 8
  %8 = alloca ptr, align 8
  %9 = alloca i32, align 4
  %10 = alloca ptr, align 8
  %11 = alloca ptr, align 8
  %12 = alloca ptr, align 8
  %13 = alloca ptr, align 8
  %14 = alloca i32, align 4
  %15 = alloca %struct.JSValue, align 8
  %16 = getelementptr inbounds { i64, i64 }, ptr %7, i32 0, i32 0
  store i64 %1, ptr %16, align 8
  %17 = getelementptr inbounds { i64, i64 }, ptr %7, i32 0, i32 1
  store i64 %2, ptr %17, align 8
  store ptr %0, ptr %8, align 8
  store i32 %3, ptr %9, align 4
  store ptr %4, ptr %10, align 8
  store ptr null, ptr %12, align 8
  %18 = load ptr, ptr %8, align 8
  %19 = load ptr, ptr %10, align 8
  %20 = getelementptr %struct.JSValue, ptr %19, i64 0
  %21 = getelementptr inbounds { i64, i64 }, ptr %20, i32 0, i32 0
  %22 = load i64, ptr %21, align 8
  %23 = getelementptr inbounds { i64, i64 }, ptr %20, i32 0, i32 1
  %24 = load i64, ptr %23, align 8
  %25 = call ptr @JS_ToCString(ptr noundef %18, i64 %22, i64 %24)
  store ptr %25, ptr %11, align 8
  %26 = load ptr, ptr %11, align 8
  %27 = icmp ne ptr %26, null
  br i1 %27, label %29, label %28

28:                                               ; preds = %5
  br label %96

29:                                               ; preds = %5
  %30 = load ptr, ptr %8, align 8
  %31 = load ptr, ptr %10, align 8
  %32 = getelementptr %struct.JSValue, ptr %31, i64 1
  %33 = getelementptr inbounds { i64, i64 }, ptr %32, i32 0, i32 0
  %34 = load i64, ptr %33, align 8
  %35 = getelementptr inbounds { i64, i64 }, ptr %32, i32 0, i32 1
  %36 = load i64, ptr %35, align 8
  %37 = call ptr @JS_ToCString(ptr noundef %30, i64 %34, i64 %36)
  store ptr %37, ptr %12, align 8
  %38 = load ptr, ptr %12, align 8
  %39 = icmp ne ptr %38, null
  br i1 %39, label %41, label %40

40:                                               ; preds = %29
  br label %96

41:                                               ; preds = %29
  %42 = load ptr, ptr %12, align 8
  %43 = load ptr, ptr %12, align 8
  %44 = call i64 @strspn(ptr noundef %43, ptr noundef @.str.87) #13
  %45 = getelementptr i8, ptr %42, i64 %44
  %46 = load i8, ptr %45, align 1
  %47 = zext i8 %46 to i32
  %48 = icmp ne i32 %47, 0
  br i1 %48, label %49, label %56

49:                                               ; preds = %41
  %50 = load ptr, ptr %8, align 8
  %51 = call { i64, i64 } (ptr, ptr, ...) @JS_ThrowTypeError(ptr noundef %50, ptr noundef @.str.85)
  %52 = getelementptr inbounds { i64, i64 }, ptr %15, i32 0, i32 0
  %53 = extractvalue { i64, i64 } %51, 0
  store i64 %53, ptr %52, align 8
  %54 = getelementptr inbounds { i64, i64 }, ptr %15, i32 0, i32 1
  %55 = extractvalue { i64, i64 } %51, 1
  store i64 %55, ptr %54, align 8
  br label %96

56:                                               ; preds = %41
  %57 = load ptr, ptr %11, align 8
  %58 = load ptr, ptr %12, align 8
  %59 = call noalias ptr @popen(ptr noundef %57, ptr noundef %58)
  store ptr %59, ptr %13, align 8
  %60 = load ptr, ptr %13, align 8
  %61 = icmp ne ptr %60, null
  br i1 %61, label %65, label %62

62:                                               ; preds = %56
  %63 = call ptr @__errno_location() #10
  %64 = load i32, ptr %63, align 4
  store i32 %64, ptr %14, align 4
  br label %66

65:                                               ; preds = %56
  store i32 0, ptr %14, align 4
  br label %66

66:                                               ; preds = %65, %62
  %67 = load i32, ptr %9, align 4
  %68 = icmp sge i32 %67, 3
  br i1 %68, label %69, label %78

69:                                               ; preds = %66
  %70 = load ptr, ptr %8, align 8
  %71 = load ptr, ptr %10, align 8
  %72 = getelementptr %struct.JSValue, ptr %71, i64 2
  %73 = load i32, ptr %14, align 4
  %74 = getelementptr inbounds { i64, i64 }, ptr %72, i32 0, i32 0
  %75 = load i64, ptr %74, align 8
  %76 = getelementptr inbounds { i64, i64 }, ptr %72, i32 0, i32 1
  %77 = load i64, ptr %76, align 8
  call void @js_set_error_object(ptr noundef %70, i64 %75, i64 %77, i32 noundef %73)
  br label %78

78:                                               ; preds = %69, %66
  %79 = load ptr, ptr %8, align 8
  %80 = load ptr, ptr %11, align 8
  call void @JS_FreeCString(ptr noundef %79, ptr noundef %80)
  %81 = load ptr, ptr %8, align 8
  %82 = load ptr, ptr %12, align 8
  call void @JS_FreeCString(ptr noundef %81, ptr noundef %82)
  %83 = load ptr, ptr %13, align 8
  %84 = icmp ne ptr %83, null
  br i1 %84, label %88, label %85

85:                                               ; preds = %78
  %86 = getelementptr inbounds %struct.JSValue, ptr %6, i32 0, i32 0
  store i32 0, ptr %86, align 8
  %87 = getelementptr inbounds %struct.JSValue, ptr %6, i32 0, i32 1
  store i64 2, ptr %87, align 8
  br label %103

88:                                               ; preds = %78
  %89 = load ptr, ptr %8, align 8
  %90 = load ptr, ptr %13, align 8
  %91 = call { i64, i64 } @js_new_std_file(ptr noundef %89, ptr noundef %90, i32 noundef 1, i32 noundef 1)
  %92 = getelementptr inbounds { i64, i64 }, ptr %6, i32 0, i32 0
  %93 = extractvalue { i64, i64 } %91, 0
  store i64 %93, ptr %92, align 8
  %94 = getelementptr inbounds { i64, i64 }, ptr %6, i32 0, i32 1
  %95 = extractvalue { i64, i64 } %91, 1
  store i64 %95, ptr %94, align 8
  br label %103

96:                                               ; preds = %49, %40, %28
  %97 = load ptr, ptr %8, align 8
  %98 = load ptr, ptr %11, align 8
  call void @JS_FreeCString(ptr noundef %97, ptr noundef %98)
  %99 = load ptr, ptr %8, align 8
  %100 = load ptr, ptr %12, align 8
  call void @JS_FreeCString(ptr noundef %99, ptr noundef %100)
  %101 = getelementptr inbounds %struct.JSValue, ptr %6, i32 0, i32 0
  store i32 0, ptr %101, align 8
  %102 = getelementptr inbounds %struct.JSValue, ptr %6, i32 0, i32 1
  store i64 6, ptr %102, align 8
  br label %103

103:                                              ; preds = %96, %88, %85
  %104 = load { i64, i64 }, ptr %6, align 8
  ret { i64, i64 } %104
}