; Function Attrs: nounwind uwtable
define internal { i64, i64 } @js_std_popen(ptr noundef %0, i64 %1, i64 %2, i32 noundef %3, ptr nocapture noundef readonly %4) #0 {
  %6 = load i64, ptr %4, align 8
  %7 = getelementptr inbounds i8, ptr %4, i64 8
  %8 = load i64, ptr %7, align 8
  %9 = tail call ptr @JS_ToCStringLen2(ptr noundef %0, ptr noundef null, i64 %6, i64 %8, i32 noundef 0) #29
  %.not = icmp eq ptr %9, null
  br i1 %.not, label %59, label %10

10:                                               ; preds = %5
  %11 = getelementptr i8, ptr %4, i64 16
  %12 = load i64, ptr %11, align 8
  %13 = getelementptr i8, ptr %4, i64 24
  %14 = load i64, ptr %13, align 8
  %15 = tail call ptr @JS_ToCStringLen2(ptr noundef %0, ptr noundef null, i64 %12, i64 %14, i32 noundef 0) #29
  %.not35 = icmp eq ptr %15, null
  br i1 %.not35, label %59, label %16

16:                                               ; preds = %10
  %17 = tail call i64 @strspn(ptr noundef nonnull %15, ptr noundef nonnull @.str.87) #31
  %18 = getelementptr i8, ptr %15, i64 %17
  %19 = load i8, ptr %18, align 1
  %.not36 = icmp eq i8 %19, 0
  br i1 %.not36, label %22, label %20

20:                                               ; preds = %16
  %21 = tail call { i64, i64 } (ptr, ptr, ...) @JS_ThrowTypeError(ptr noundef %0, ptr noundef nonnull @.str.85) #29
  br label %59

22:                                               ; preds = %16
  %23 = tail call noalias ptr @popen(ptr noundef nonnull %9, ptr noundef nonnull %15)
  %.not37 = icmp eq ptr %23, null
  br i1 %.not37, label %24, label %28

24:                                               ; preds = %22
  %25 = tail call ptr @__errno_location() #28
  %26 = load i32, ptr %25, align 4
  %27 = zext i32 %26 to i64
  br label %28

28:                                               ; preds = %22, %24
  %.0 = phi i64 [ %27, %24 ], [ 0, %22 ]
  %29 = icmp sgt i32 %3, 2
  br i1 %29, label %30, label %js_set_error_object.exit

30:                                               ; preds = %28
  %31 = getelementptr i8, ptr %4, i64 40
  %32 = load i64, ptr %31, align 8
  %33 = and i64 %32, 4294967295
  %.not.i = icmp eq i64 %33, 3
  br i1 %.not.i, label %js_set_error_object.exit, label %34

34:                                               ; preds = %30
  %35 = getelementptr i8, ptr %4, i64 32
  %36 = load i64, ptr %35, align 8
  %37 = tail call i32 @JS_SetPropertyStr(ptr noundef %0, i64 %36, i64 %32, ptr noundef nonnull @.str.86, i64 %.0, i64 0) #29
  br label %js_set_error_object.exit

js_set_error_object.exit:                         ; preds = %34, %30, %28
  tail call void @JS_FreeCString(ptr noundef %0, ptr noundef nonnull %9) #29
  tail call void @JS_FreeCString(ptr noundef %0, ptr noundef nonnull %15) #29
  br i1 %.not37, label %60, label %38

38:                                               ; preds = %js_set_error_object.exit
  %39 = load i32, ptr @js_std_file_class_id, align 4
  %40 = tail call { i64, i64 } @JS_NewObjectClass(ptr noundef %0, i32 noundef %39) #29
  %41 = extractvalue { i64, i64 } %40, 0
  %42 = extractvalue { i64, i64 } %40, 1
  %43 = and i64 %42, 4294967295
  %.not.i38 = icmp eq i64 %43, 6
  br i1 %.not.i38, label %44, label %45

44:                                               ; preds = %38
  %.sroa.4.0.extract.shift.i = and i64 %41, -4294967296
  br label %js_new_std_file.exit

45:                                               ; preds = %38
  %46 = tail call ptr @js_mallocz(ptr noundef %0, i64 noundef 16) #29
  %.not24.i = icmp eq ptr %46, null
  br i1 %.not24.i, label %47, label %56

47:                                               ; preds = %45
  %48 = trunc i64 %42 to i32
  %49 = icmp ugt i32 %48, -12
  br i1 %49, label %50, label %js_new_std_file.exit

50:                                               ; preds = %47
  %51 = inttoptr i64 %41 to ptr
  %52 = load i32, ptr %51, align 4
  %53 = add i32 %52, -1
  store i32 %53, ptr %51, align 4
  %54 = icmp slt i32 %53, 1
  br i1 %54, label %55, label %js_new_std_file.exit

55:                                               ; preds = %50
  tail call void @__JS_FreeValue(ptr noundef %0, i64 %41, i64 %42) #29
  br label %js_new_std_file.exit

56:                                               ; preds = %45
  %57 = getelementptr inbounds i8, ptr %46, i64 8
  store i32 1, ptr %57, align 8
  %58 = getelementptr inbounds i8, ptr %46, i64 12
  store i32 1, ptr %58, align 4
  store ptr %23, ptr %46, align 8
  tail call void @JS_SetOpaque(i64 %41, i64 %42, ptr noundef nonnull %46) #29
  %.sroa.4.0.extract.shift20.i = and i64 %41, -4294967296
  br label %js_new_std_file.exit

js_new_std_file.exit:                             ; preds = %44, %47, %50, %55, %56
  %.sroa.018.0.i = phi i64 [ %41, %44 ], [ %41, %56 ], [ 0, %47 ], [ 0, %50 ], [ 0, %55 ]
  %.sroa.4.sroa.0.0.i = phi i64 [ %.sroa.4.0.extract.shift.i, %44 ], [ %.sroa.4.0.extract.shift20.i, %56 ], [ 0, %47 ], [ 0, %50 ], [ 0, %55 ]
  %.sroa.4.sroa.3.0.i = phi i64 [ %42, %44 ], [ %42, %56 ], [ 6, %47 ], [ 6, %50 ], [ 6, %55 ]
  %.sroa.018.0.insert.ext.i = and i64 %.sroa.018.0.i, 4294967295
  br label %60

59:                                               ; preds = %10, %5, %20
  %.031 = phi ptr [ %15, %20 ], [ null, %10 ], [ null, %5 ]
  tail call void @JS_FreeCString(ptr noundef %0, ptr noundef %9) #29
  tail call void @JS_FreeCString(ptr noundef %0, ptr noundef %.031) #29
  br label %60

60:                                               ; preds = %js_set_error_object.exit, %59, %js_new_std_file.exit
  %.sroa.028.0 = phi i64 [ 0, %59 ], [ %.sroa.018.0.insert.ext.i, %js_new_std_file.exit ], [ 0, %js_set_error_object.exit ]
  %.sroa.4.sroa.0.0 = phi i64 [ 0, %59 ], [ %.sroa.4.sroa.0.0.i, %js_new_std_file.exit ], [ 0, %js_set_error_object.exit ]
  %.sroa.4.sroa.2.0 = phi i64 [ 6, %59 ], [ %.sroa.4.sroa.3.0.i, %js_new_std_file.exit ], [ 2, %js_set_error_object.exit ]
  %.sroa.028.0.insert.insert = or disjoint i64 %.sroa.4.sroa.0.0, %.sroa.028.0
  %.fca.0.insert = insertvalue { i64, i64 } poison, i64 %.sroa.028.0.insert.insert, 0
  %.fca.1.insert = insertvalue { i64, i64 } %.fca.0.insert, i64 %.sroa.4.sroa.2.0, 1
  ret { i64, i64 } %.fca.1.insert
}